; Function Attrs: mustprogress nofree norecurse nosync nounwind willreturn memory(argmem: readwrite) uwtable
define i32 @ZSTD_getDictID_fromFrame(ptr noundef captures(address_is_null) %0, i64 noundef %1) local_unnamed_addr #7 {
  %3 = alloca %struct.ZSTD_FrameHeader, align 8
  call void @llvm.lifetime.start.p0(i64 48, ptr nonnull %3) #17
  call void @llvm.memset.p0.i64(ptr noundef nonnull align 8 dereferenceable(48) %3, i8 0, i64 48, i1 false)
  %4 = call i64 @ZSTD_getFrameHeader_advanced(ptr noundef nonnull %3, ptr noundef %0, i64 noundef %1, i32 noundef 0)
  %5 = icmp ult i64 %4, -119
  %6 = getelementptr inbounds nuw i8, ptr %3, i64 28
  %7 = load i32, ptr %6, align 4
  %.0 = select i1 %5, i32 %7, i32 0
  call void @llvm.lifetime.end.p0(i64 48, ptr nonnull %3) #17
  ret i32 %.0
}